target datalayout = "e-m:e-p270:32:32-p271:32:32-p272:64:64-i64:64-i128:128-f80:128-n8:16:32:64-S128"
target triple = "x86_64-pc-linux-gnu"

@id_write = internal global i64 0, align 8

; Function Attrs: nounwind sspstrong uwtable
define dso_local i64 @rb_io_write(i64 noundef %0, i64 noundef %1) #0 {
  %3 = alloca i64, align 8
  %4 = alloca i64, align 8
  store i64 %0, ptr %3, align 8, !tbaa !32
  store i64 %1, ptr %4, align 8, !tbaa !32
  %5 = load i64, ptr %3, align 8, !tbaa !32
  %6 = load i64, ptr @id_write, align 8, !tbaa !32
  %7 = call i64 @rb_funcallv(i64 noundef %5, i64 noundef %6, i32 noundef 1, ptr noundef %4)
  ret i64 %7
}

; Function Attrs: nounwind sspstrong uwtable
define dso_local i64 @rb_io_addstr(i64 noundef %0, i64 noundef %1) #0 {
  %3 = alloca i64, align 8
  %4 = alloca i64, align 8
  store i64 %0, ptr %3, align 8, !tbaa !32
  store i64 %1, ptr %4, align 8, !tbaa !32
  %5 = load i64, ptr %3, align 8, !tbaa !32
  %6 = load i64, ptr %4, align 8, !tbaa !32
  %7 = call i64 @rb_io_write(i64 noundef %5, i64 noundef %6)
  %8 = load i64, ptr %3, align 8, !tbaa !32
  ret i64 %8
}