; Function Attrs: nounwind sspstrong uwtable
define dso_local noundef i64 @rb_io_addstr(i64 noundef returned %0, i64 noundef %1) #0 {
  %3 = alloca i64, align 8
  call void @llvm.lifetime.start.p0(i64 8, ptr nonnull %3)
  store i64 %1, ptr %3, align 8, !tbaa !23
  %4 = load i64, ptr @id_write, align 8, !tbaa !23
  %5 = call i64 @rb_funcallv(i64 noundef %0, i64 noundef %4, i32 noundef 1, ptr noundef nonnull %3) #28
  call void @llvm.lifetime.end.p0(i64 8, ptr nonnull %3)
  ret i64 %0
}